target datalayout = "e-m:e-p270:32:32-p271:32:32-p272:64:64-i64:64-i128:128-f80:128-n8:16:32:64-S128"
target triple = "x86_64-pc-linux-gnu"

%struct.SlruCtlData = type { ptr, i16, i8, i32, ptr, [64 x i8] }
%struct.xl_commit_ts_truncate = type { i64, i32 }

@CommitTsCtlData = internal global %struct.SlruCtlData zeroinitializer, align 8

; Function Attrs: nounwind uwtable
define internal void @WriteTruncateXlogRec(i64 noundef %0, i32 noundef %1) #0 {
  %3 = alloca i64, align 8
  %4 = alloca i32, align 4
  %5 = alloca %struct.xl_commit_ts_truncate, align 8
  store i64 %0, ptr %3, align 8
  store i32 %1, ptr %4, align 4
  call void @llvm.lifetime.start.p0(i64 16, ptr %5) #7
  %6 = load i64, ptr %3, align 8
  %7 = getelementptr inbounds nuw %struct.xl_commit_ts_truncate, ptr %5, i32 0, i32 0
  store i64 %6, ptr %7, align 8
  %8 = load i32, ptr %4, align 4
  %9 = getelementptr inbounds nuw %struct.xl_commit_ts_truncate, ptr %5, i32 0, i32 1
  store i32 %8, ptr %9, align 8
  call void @XLogBeginInsert()
  call void @XLogRegisterData(ptr noundef %5, i32 noundef 12)
  %10 = call i64 @XLogInsert(i8 noundef zeroext 18, i8 noundef zeroext 16)
  call void @llvm.lifetime.end.p0(i64 16, ptr %5) #7
  ret void
}

; Function Attrs: inlinehint nounwind uwtable
define internal i64 @TransactionIdToCTsPage(i32 noundef %0) #2 {
  %2 = alloca i32, align 4
  store i32 %0, ptr %2, align 4
  %3 = load i32, ptr %2, align 4
  %4 = zext i32 %3 to i64
  %5 = sdiv i64 %4, 819
  ret i64 %5
}

; Function Attrs: nounwind uwtable
define dso_local void @TruncateCommitTs(i32 noundef %0) #0 {
  %2 = alloca i32, align 4
  %3 = alloca i64, align 8
  %4 = alloca i32, align 4
  store i32 %0, ptr %2, align 4
  call void @llvm.lifetime.start.p0(i64 8, ptr %3) #7
  %5 = load i32, ptr %2, align 4
  %6 = call i64 @TransactionIdToCTsPage(i32 noundef %5)
  store i64 %6, ptr %3, align 8
  %7 = call zeroext i1 @SlruScanDirectory(ptr noundef @CommitTsCtlData, ptr noundef @SlruScanDirCbReportPresence, ptr noundef %3)
  br i1 %7, label %9, label %8

8:                                                ; preds = %1
  store i32 1, ptr %4, align 4
  br label %13

9:                                                ; preds = %1
  %10 = load i64, ptr %3, align 8
  %11 = load i32, ptr %2, align 4
  call void @WriteTruncateXlogRec(i64 noundef %10, i32 noundef %11)
  %12 = load i64, ptr %3, align 8
  call void @SimpleLruTruncate(ptr noundef @CommitTsCtlData, i64 noundef %12)
  store i32 0, ptr %4, align 4
  br label %13

13:                                               ; preds = %9, %8
  call void @llvm.lifetime.end.p0(i64 8, ptr %3) #7
  %14 = load i32, ptr %4, align 4
  switch i32 %14, label %16 [
    i32 0, label %15
    i32 1, label %15
  ]

15:                                               ; preds = %13, %13
  ret void

16:                                               ; preds = %13
  unreachable
}