; Function Attrs: nounwind uwtable
define dso_local void @TruncateCommitTs(i32 noundef %0) local_unnamed_addr #0 {
  %2 = alloca %struct.xl_commit_ts_truncate, align 8
  %3 = alloca i64, align 8
  call void @llvm.lifetime.start.p0(i64 8, ptr nonnull %3) #9
  %4 = udiv i32 %0, 819
  %5 = zext nneg i32 %4 to i64
  store i64 %5, ptr %3, align 8
  %6 = call zeroext i1 @SlruScanDirectory(ptr noundef nonnull @CommitTsCtlData, ptr noundef nonnull @SlruScanDirCbReportPresence, ptr noundef nonnull %3) #9
  br i1 %6, label %7, label %12

7:                                                ; preds = %1
  %8 = load i64, ptr %3, align 8
  call void @llvm.lifetime.start.p0(i64 16, ptr nonnull %2) #9
  store i64 %8, ptr %2, align 8
  %9 = getelementptr inbounds nuw i8, ptr %2, i64 8
  store i32 %0, ptr %9, align 8
  call void @XLogBeginInsert() #9
  call void @XLogRegisterData(ptr noundef nonnull %2, i32 noundef 12) #9
  %10 = call i64 @XLogInsert(i8 noundef zeroext 18, i8 noundef zeroext 16) #9
  call void @llvm.lifetime.end.p0(i64 16, ptr nonnull %2) #9
  %11 = load i64, ptr %3, align 8
  call void @SimpleLruTruncate(ptr noundef nonnull @CommitTsCtlData, i64 noundef %11) #9
  br label %12

12:                                               ; preds = %1, %7
  call void @llvm.lifetime.end.p0(i64 8, ptr nonnull %3) #9
  ret void
}